target datalayout = "e-m:e-p270:32:32-p271:32:32-p272:64:64-i64:64-i128:128-f80:128-n8:16:32:64-S128"
target triple = "x86_64-pc-linux-gnu"

%struct.expert_field = type { i32, i32 }
%struct.ieee802154_packet = type { i32, i32, i32, i32, i8, i8, i8, i8, i8, i8, i8, i8, i8, i8, i8, i8, i16, i16, i16, i64, i16, i64, i32, i32, i8, i32, i8, i64, %union.anon, i8, i8, ptr }
%union.anon = type { i64 }
%struct._proto_node = type { ptr, ptr, ptr, ptr, ptr, ptr, ptr }
%struct.field_info = type { ptr, i32, i32, i32, i32, i32, i32, ptr, ptr, ptr, i32, i32 }
%struct.ieee802154_decrypt_info_t = type { ptr, i32, ptr, ptr, i32, i32, ptr }
%struct._packet_info = type { ptr, ptr, i32, i32, %struct.nstime_t, %struct.nstime_t, %struct.nstime_t, i8, ptr, ptr, ptr, ptr, %struct._address, %struct._address, %struct._address, %struct._address, %struct._address, %struct._address, i32, ptr, i8, [3 x i8], %struct.anon, i32, i32, i32, i32, ptr, i8, ptr, ptr, i16, i16, i32, i32, i16, i32, i32, ptr, ptr, ptr, i8, i8, i16, i16, i16, i32, i16, i16, ptr, ptr, ptr, ptr, ptr, i32, i32 }
%struct.nstime_t = type { i64, i32 }
%struct._address = type { i32, i32, ptr, ptr }
%struct.anon = type { i8, [3 x i8] }

@hf_ieee802154_key_number = internal global i32 0, align 4
@.str.24 = private unnamed_addr constant [5 x i8] c"TREL\00", align 1
@hf_ieee802154_mic = internal global i32 0, align 4
@ei_ieee802154_decrypt_error = internal global %struct.expert_field zeroinitializer, align 4
@.str.25 = private unnamed_addr constant [76 x i8] c"Decryption of 802.15.4-2015 with frame counter suppression is not supported\00", align 1
@.str.26 = private unnamed_addr constant [48 x i8] c"Packet was too small to include the CRC and MIC\00", align 1
@.str.27 = private unnamed_addr constant [43 x i8] c"No extended source address - can't decrypt\00", align 1
@.str.28 = private unnamed_addr constant [38 x i8] c"No encryption key set - can't decrypt\00", align 1
@.str.29 = private unnamed_addr constant [15 x i8] c"Decrypt failed\00", align 1
@.str.30 = private unnamed_addr constant [17 x i8] c"MIC check failed\00", align 1

; Function Attrs: inlinehint nounwind null_pointer_is_valid sspstrong uwtable
define internal void @proto_item_set_generated(ptr noundef %0) #4 {
  %2 = alloca ptr, align 8
  store ptr %0, ptr %2, align 8
  %3 = load ptr, ptr %2, align 8
  %4 = icmp ne ptr %3, null
  br i1 %4, label %5, label %24

5:                                                ; preds = %1
  br label %6

6:                                                ; preds = %5
  %7 = load ptr, ptr %2, align 8
  %8 = getelementptr inbounds nuw %struct._proto_node, ptr %7, i32 0, i32 5
  %9 = load ptr, ptr %8, align 8
  %10 = icmp ne ptr %9, null
  br i1 %10, label %11, label %22

11:                                               ; preds = %6
  %12 = load ptr, ptr %2, align 8
  %13 = getelementptr inbounds nuw %struct._proto_node, ptr %12, i32 0, i32 5
  %14 = load ptr, ptr %13, align 8
  %15 = getelementptr inbounds nuw %struct.field_info, ptr %14, i32 0, i32 6
  %16 = load i32, ptr %15, align 4
  %17 = or i32 %16, 2
  %18 = load ptr, ptr %2, align 8
  %19 = getelementptr inbounds nuw %struct._proto_node, ptr %18, i32 0, i32 5
  %20 = load ptr, ptr %19, align 8
  %21 = getelementptr inbounds nuw %struct.field_info, ptr %20, i32 0, i32 6
  store i32 %17, ptr %21, align 4
  br label %22

22:                                               ; preds = %11, %6
  br label %23

23:                                               ; preds = %22
  br label %24

24:                                               ; preds = %23, %1
  ret void
}

; Function Attrs: null_pointer_is_valid sspstrong uwtable
define hidden ptr @ieee802154_decrypt_payload(ptr noundef %0, i32 noundef %1, ptr noundef %2, ptr noundef %3, ptr noundef %4) #0 {
  %6 = alloca ptr, align 8
  %7 = alloca ptr, align 8
  %8 = alloca i32, align 4
  %9 = alloca ptr, align 8
  %10 = alloca ptr, align 8
  %11 = alloca ptr, align 8
  %12 = alloca ptr, align 8
  %13 = alloca ptr, align 8
  %14 = alloca [16 x i8], align 16
  %15 = alloca i32, align 4
  %16 = alloca i32, align 4
  %17 = alloca ptr, align 8
  %18 = alloca i32, align 4
  %19 = alloca ptr, align 8
  %20 = alloca %struct.ieee802154_decrypt_info_t, align 8
  %21 = alloca i32, align 4
  %22 = alloca ptr, align 8
  %23 = alloca i32, align 4
  %24 = alloca i32, align 4
  store ptr %0, ptr %7, align 8
  store i32 %1, ptr %8, align 4
  store ptr %2, ptr %9, align 8
  store ptr %3, ptr %10, align 8
  store ptr %4, ptr %11, align 8
  call void @llvm.lifetime.start.p0(i64 8, ptr %12) #17
  %25 = load ptr, ptr %10, align 8
  %26 = call ptr @proto_tree_get_parent(ptr noundef %25)
  store ptr %26, ptr %12, align 8
  call void @llvm.lifetime.start.p0(i64 8, ptr %13) #17
  %27 = load ptr, ptr %10, align 8
  %28 = call ptr @proto_tree_get_parent_tree(ptr noundef %27)
  store ptr %28, ptr %13, align 8
  call void @llvm.lifetime.start.p0(i64 16, ptr %14) #17
  call void @llvm.lifetime.start.p0(i64 4, ptr %15) #17
  %29 = load ptr, ptr %11, align 8
  %30 = getelementptr inbounds nuw %struct.ieee802154_packet, ptr %29, i32 0, i32 22
  %31 = load i32, ptr %30, align 8
  %32 = and i32 %31, 3
  %33 = shl i32 2, %32
  %34 = and i32 %33, -4
  store i32 %34, ptr %15, align 4
  call void @llvm.lifetime.start.p0(i64 4, ptr %16) #17
  store i32 1, ptr %16, align 4
  call void @llvm.lifetime.start.p0(i64 8, ptr %17) #17
  call void @llvm.lifetime.start.p0(i64 4, ptr %18) #17
  %35 = call i32 @proto_get_id_by_short_name(ptr noundef @.str.24)
  store i32 %35, ptr %18, align 4
  call void @llvm.lifetime.start.p0(i64 8, ptr %19) #17
  %36 = load ptr, ptr %9, align 8
  %37 = getelementptr inbounds nuw %struct._packet_info, ptr %36, i32 0, i32 39
  %38 = load ptr, ptr %37, align 8
  %39 = load i32, ptr %18, align 4
  %40 = zext i32 %39 to i64
  %41 = inttoptr i64 %40 to ptr
  %42 = call ptr @wmem_list_find(ptr noundef %38, ptr noundef %41)
  store ptr %42, ptr %19, align 8
  %43 = load ptr, ptr %11, align 8
  %44 = getelementptr inbounds nuw %struct.ieee802154_packet, ptr %43, i32 0, i32 4
  %45 = load i8, ptr %44, align 8, !range !6, !noundef !7
  %46 = trunc i8 %45 to i1
  br i1 %46, label %50, label %47

47:                                               ; preds = %5
  %48 = load ptr, ptr %19, align 8
  %49 = icmp ne ptr %48, null
  br i1 %49, label %50, label %175

50:                                               ; preds = %47, %5
  call void @llvm.lifetime.start.p0(i64 48, ptr %20) #17
  %51 = getelementptr inbounds [16 x i8], ptr %14, i64 0, i64 0
  %52 = getelementptr inbounds nuw %struct.ieee802154_decrypt_info_t, ptr %20, i32 0, i32 2
  store ptr %51, ptr %52, align 8
  %53 = getelementptr inbounds nuw %struct.ieee802154_decrypt_info_t, ptr %20, i32 0, i32 3
  store ptr %15, ptr %53, align 8
  %54 = getelementptr inbounds nuw %struct.ieee802154_decrypt_info_t, ptr %20, i32 0, i32 6
  store ptr %16, ptr %54, align 8
  %55 = getelementptr inbounds nuw %struct.ieee802154_decrypt_info_t, ptr %20, i32 0, i32 0
  store ptr null, ptr %55, align 8
  %56 = load ptr, ptr %19, align 8
  %57 = icmp ne ptr %56, null
  br i1 %57, label %58, label %64

58:                                               ; preds = %50
  %59 = load ptr, ptr %7, align 8
  %60 = load i32, ptr %8, align 4
  %61 = load ptr, ptr %9, align 8
  %62 = load ptr, ptr %11, align 8
  %63 = call ptr @decrypt_ieee802154_payload(ptr noundef %59, i32 noundef %60, ptr noundef %61, ptr noundef null, ptr noundef %62, ptr noundef %20, ptr noundef @ieee802154_set_trel_key, ptr noundef @dissect_ieee802154_decrypt)
  store ptr %63, ptr %17, align 8
  br label %70

64:                                               ; preds = %50
  %65 = load ptr, ptr %7, align 8
  %66 = load i32, ptr %8, align 4
  %67 = load ptr, ptr %9, align 8
  %68 = load ptr, ptr %11, align 8
  %69 = call ptr @decrypt_ieee802154_payload(ptr noundef %65, i32 noundef %66, ptr noundef %67, ptr noundef null, ptr noundef %68, ptr noundef %20, ptr noundef @ieee802154_set_mac_key, ptr noundef @dissect_ieee802154_decrypt)
  store ptr %69, ptr %17, align 8
  br label %70

70:                                               ; preds = %64, %58
  %71 = load ptr, ptr %17, align 8
  %72 = icmp ne ptr %71, null
  br i1 %72, label %84, label %73

73:                                               ; preds = %70
  call void @llvm.lifetime.start.p0(i64 4, ptr %21) #17
  %74 = load ptr, ptr %7, align 8
  %75 = call i32 @tvb_reported_length(ptr noundef %74)
  %76 = load i32, ptr %8, align 4
  %77 = sub i32 %75, %76
  %78 = load i32, ptr %15, align 4
  %79 = sub i32 %77, %78
  store i32 %79, ptr %21, align 4
  %80 = load ptr, ptr %7, align 8
  %81 = load i32, ptr %8, align 4
  %82 = load i32, ptr %21, align 4
  %83 = call ptr @tvb_new_subset_length(ptr noundef %80, i32 noundef %81, i32 noundef %82)
  store ptr %83, ptr %17, align 8
  call void @llvm.lifetime.end.p0(i64 4, ptr %21) #17
  br label %84

84:                                               ; preds = %73, %70
  %85 = load i32, ptr %15, align 4
  %86 = icmp ne i32 %85, 0
  br i1 %86, label %87, label %106

87:                                               ; preds = %84
  %88 = load ptr, ptr %7, align 8
  %89 = load ptr, ptr %7, align 8
  %90 = call i32 @tvb_reported_length(ptr noundef %89)
  %91 = load i32, ptr %15, align 4
  %92 = sub i32 %90, %91
  %93 = load i32, ptr %15, align 4
  %94 = call zeroext i1 @tvb_bytes_exist(ptr noundef %88, i32 noundef %92, i32 noundef %93)
  br i1 %94, label %95, label %105

95:                                               ; preds = %87
  %96 = load ptr, ptr %10, align 8
  %97 = load i32, ptr @hf_ieee802154_mic, align 4
  %98 = load ptr, ptr %7, align 8
  %99 = load ptr, ptr %7, align 8
  %100 = call i32 @tvb_reported_length(ptr noundef %99)
  %101 = load i32, ptr %15, align 4
  %102 = sub i32 %100, %101
  %103 = load i32, ptr %15, align 4
  %104 = call ptr @proto_tree_add_item(ptr noundef %96, i32 noundef %97, ptr noundef %98, i32 noundef %102, i32 noundef %103, i32 noundef 0)
  br label %105

105:                                              ; preds = %95, %87
  br label %106

106:                                              ; preds = %105, %84
  %107 = load i32, ptr %16, align 4
  switch i32 %107, label %171 [
    i32 0, label %108
    i32 1, label %171
    i32 2, label %116
    i32 3, label %124
    i32 4, label %132
    i32 5, label %140
    i32 6, label %148
    i32 7, label %156
  ]

108:                                              ; preds = %106
  call void @llvm.lifetime.start.p0(i64 8, ptr %22) #17
  %109 = load ptr, ptr %10, align 8
  %110 = load i32, ptr @hf_ieee802154_key_number, align 4
  %111 = load ptr, ptr %7, align 8
  %112 = getelementptr inbounds nuw %struct.ieee802154_decrypt_info_t, ptr %20, i32 0, i32 1
  %113 = load i32, ptr %112, align 8
  %114 = call ptr @proto_tree_add_uint(ptr noundef %109, i32 noundef %110, ptr noundef %111, i32 noundef 0, i32 noundef 0, i32 noundef %113)
  store ptr %114, ptr %22, align 8
  %115 = load ptr, ptr %22, align 8
  call void @proto_item_set_generated(ptr noundef %115)
  call void @llvm.lifetime.end.p0(i64 8, ptr %22) #17
  br label %171

116:                                              ; preds = %106
  %117 = load ptr, ptr %9, align 8
  %118 = load ptr, ptr %12, align 8
  %119 = call ptr (ptr, ptr, ptr, ptr, ...) @expert_add_info_format(ptr noundef %117, ptr noundef %118, ptr noundef @ei_ieee802154_decrypt_error, ptr noundef @.str.25)
  %120 = load ptr, ptr %17, align 8
  %121 = load ptr, ptr %9, align 8
  %122 = load ptr, ptr %13, align 8
  %123 = call i32 @call_data_dissector(ptr noundef %120, ptr noundef %121, ptr noundef %122)
  store ptr null, ptr %6, align 8
  store i32 1, ptr %23, align 4
  br label %172

124:                                              ; preds = %106
  %125 = load ptr, ptr %9, align 8
  %126 = load ptr, ptr %12, align 8
  %127 = call ptr (ptr, ptr, ptr, ptr, ...) @expert_add_info_format(ptr noundef %125, ptr noundef %126, ptr noundef @ei_ieee802154_decrypt_error, ptr noundef @.str.26)
  %128 = load ptr, ptr %17, align 8
  %129 = load ptr, ptr %9, align 8
  %130 = load ptr, ptr %13, align 8
  %131 = call i32 @call_data_dissector(ptr noundef %128, ptr noundef %129, ptr noundef %130)
  store ptr null, ptr %6, align 8
  store i32 1, ptr %23, align 4
  br label %172

132:                                              ; preds = %106
  %133 = load ptr, ptr %9, align 8
  %134 = load ptr, ptr %12, align 8
  %135 = call ptr (ptr, ptr, ptr, ptr, ...) @expert_add_info_format(ptr noundef %133, ptr noundef %134, ptr noundef @ei_ieee802154_decrypt_error, ptr noundef @.str.27)
  %136 = load ptr, ptr %17, align 8
  %137 = load ptr, ptr %9, align 8
  %138 = load ptr, ptr %13, align 8
  %139 = call i32 @call_data_dissector(ptr noundef %136, ptr noundef %137, ptr noundef %138)
  store ptr null, ptr %6, align 8
  store i32 1, ptr %23, align 4
  br label %172

140:                                              ; preds = %106
  %141 = load ptr, ptr %9, align 8
  %142 = load ptr, ptr %12, align 8
  %143 = call ptr (ptr, ptr, ptr, ptr, ...) @expert_add_info_format(ptr noundef %141, ptr noundef %142, ptr noundef @ei_ieee802154_decrypt_error, ptr noundef @.str.28)
  %144 = load ptr, ptr %17, align 8
  %145 = load ptr, ptr %9, align 8
  %146 = load ptr, ptr %13, align 8
  %147 = call i32 @call_data_dissector(ptr noundef %144, ptr noundef %145, ptr noundef %146)
  store ptr null, ptr %6, align 8
  store i32 1, ptr %23, align 4
  br label %172

148:                                              ; preds = %106
  %149 = load ptr, ptr %9, align 8
  %150 = load ptr, ptr %12, align 8
  %151 = call ptr (ptr, ptr, ptr, ptr, ...) @expert_add_info_format(ptr noundef %149, ptr noundef %150, ptr noundef @ei_ieee802154_decrypt_error, ptr noundef @.str.29)
  %152 = load ptr, ptr %17, align 8
  %153 = load ptr, ptr %9, align 8
  %154 = load ptr, ptr %13, align 8
  %155 = call i32 @call_data_dissector(ptr noundef %152, ptr noundef %153, ptr noundef %154)
  store ptr null, ptr %6, align 8
  store i32 1, ptr %23, align 4
  br label %172

156:                                              ; preds = %106
  %157 = load ptr, ptr %9, align 8
  %158 = load ptr, ptr %12, align 8
  %159 = call ptr (ptr, ptr, ptr, ptr, ...) @expert_add_info_format(ptr noundef %157, ptr noundef %158, ptr noundef @ei_ieee802154_decrypt_error, ptr noundef @.str.30)
  %160 = load ptr, ptr %11, align 8
  %161 = getelementptr inbounds nuw %struct.ieee802154_packet, ptr %160, i32 0, i32 22
  %162 = load i32, ptr %161, align 8
  %163 = and i32 %162, 4
  %164 = icmp ne i32 %163, 0
  br i1 %164, label %165, label %170

165:                                              ; preds = %156
  %166 = load ptr, ptr %17, align 8
  %167 = load ptr, ptr %9, align 8
  %168 = load ptr, ptr %13, align 8
  %169 = call i32 @call_data_dissector(ptr noundef %166, ptr noundef %167, ptr noundef %168)
  store ptr null, ptr %6, align 8
  store i32 1, ptr %23, align 4
  br label %172

170:                                              ; preds = %156
  br label %171

171:                                              ; preds = %106, %170, %106, %108
  store i32 0, ptr %23, align 4
  br label %172

172:                                              ; preds = %171, %165, %148, %140, %132, %124, %116
  call void @llvm.lifetime.end.p0(i64 48, ptr %20) #17
  %173 = load i32, ptr %23, align 4
  switch i32 %173, label %186 [
    i32 0, label %174
  ]

174:                                              ; preds = %172
  br label %184

175:                                              ; preds = %47
  call void @llvm.lifetime.start.p0(i64 4, ptr %24) #17
  %176 = load ptr, ptr %7, align 8
  %177 = call i32 @tvb_reported_length(ptr noundef %176)
  %178 = load i32, ptr %8, align 4
  %179 = sub i32 %177, %178
  store i32 %179, ptr %24, align 4
  %180 = load ptr, ptr %7, align 8
  %181 = load i32, ptr %8, align 4
  %182 = load i32, ptr %24, align 4
  %183 = call ptr @tvb_new_subset_length(ptr noundef %180, i32 noundef %181, i32 noundef %182)
  store ptr %183, ptr %17, align 8
  call void @llvm.lifetime.end.p0(i64 4, ptr %24) #17
  br label %184

184:                                              ; preds = %175, %174
  %185 = load ptr, ptr %17, align 8
  store ptr %185, ptr %6, align 8
  store i32 1, ptr %23, align 4
  br label %186

186:                                              ; preds = %184, %172
  call void @llvm.lifetime.end.p0(i64 8, ptr %19) #17
  call void @llvm.lifetime.end.p0(i64 4, ptr %18) #17
  call void @llvm.lifetime.end.p0(i64 8, ptr %17) #17
  call void @llvm.lifetime.end.p0(i64 4, ptr %16) #17
  call void @llvm.lifetime.end.p0(i64 4, ptr %15) #17
  call void @llvm.lifetime.end.p0(i64 16, ptr %14) #17
  call void @llvm.lifetime.end.p0(i64 8, ptr %13) #17
  call void @llvm.lifetime.end.p0(i64 8, ptr %12) #17
  %187 = load ptr, ptr %6, align 8
  ret ptr %187
}