; Function Attrs: null_pointer_is_valid sspstrong uwtable
define hidden ptr @ieee802154_decrypt_payload(ptr noundef %0, i32 noundef %1, ptr noundef %2, ptr noundef %3, ptr noundef %4) local_unnamed_addr #0 {
  %6 = alloca [16 x i8], align 16
  %7 = alloca i32, align 4
  %8 = alloca i32, align 4
  %9 = alloca %struct.ieee802154_decrypt_info_t, align 8
  %10 = tail call ptr @proto_tree_get_parent(ptr noundef %3)
  %11 = tail call ptr @proto_tree_get_parent_tree(ptr noundef %3)
  call void @llvm.lifetime.start.p0(i64 16, ptr nonnull %6) #19
  call void @llvm.lifetime.start.p0(i64 4, ptr nonnull %7) #19
  %12 = getelementptr inbounds nuw i8, ptr %4, i64 64
  %13 = load i32, ptr %12, align 8
  %14 = and i32 %13, 3
  %15 = shl nuw nsw i32 2, %14
  %16 = and i32 %15, 28
  store i32 %16, ptr %7, align 4
  call void @llvm.lifetime.start.p0(i64 4, ptr nonnull %8) #19
  store i32 1, ptr %8, align 4
  %17 = tail call i32 @proto_get_id_by_short_name(ptr noundef nonnull @.str.24)
  %18 = getelementptr inbounds nuw i8, ptr %2, i64 360
  %19 = load ptr, ptr %18, align 8
  %20 = zext i32 %17 to i64
  %21 = inttoptr i64 %20 to ptr
  %22 = tail call ptr @wmem_list_find(ptr noundef %19, ptr noundef %21)
  %23 = getelementptr inbounds nuw i8, ptr %4, i64 16
  %24 = load i8, ptr %23, align 8, !range !6, !noundef !7
  %25 = trunc nuw i8 %24 to i1
  %26 = icmp ne ptr %22, null
  %or.cond = select i1 %25, i1 true, i1 %26
  br i1 %or.cond, label %27, label %73

27:                                               ; preds = %5
  call void @llvm.lifetime.start.p0(i64 48, ptr nonnull %9) #19
  %28 = getelementptr inbounds nuw i8, ptr %9, i64 16
  store ptr %6, ptr %28, align 8
  %29 = getelementptr inbounds nuw i8, ptr %9, i64 24
  store ptr %7, ptr %29, align 8
  %30 = getelementptr inbounds nuw i8, ptr %9, i64 40
  store ptr %8, ptr %30, align 8
  store ptr null, ptr %9, align 8
  %ieee802154_set_trel_key.ieee802154_set_mac_key = select i1 %26, ptr @ieee802154_set_trel_key, ptr @ieee802154_set_mac_key
  %31 = call ptr @decrypt_ieee802154_payload(ptr noundef %0, i32 noundef %1, ptr noundef %2, ptr noundef null, ptr noundef %4, ptr noundef nonnull %9, ptr noundef nonnull %ieee802154_set_trel_key.ieee802154_set_mac_key, ptr noundef nonnull @dissect_ieee802154_decrypt)
  %.not = icmp eq ptr %31, null
  br i1 %.not, label %32, label %38

32:                                               ; preds = %27
  %33 = call i32 @tvb_reported_length(ptr noundef %0)
  %34 = load i32, ptr %7, align 4
  %35 = add i32 %1, %34
  %36 = sub i32 %33, %35
  %37 = call ptr @tvb_new_subset_length(ptr noundef %0, i32 noundef %1, i32 noundef %36)
  br label %38

38:                                               ; preds = %32, %27
  %.171 = phi ptr [ %31, %27 ], [ %37, %32 ]
  %39 = load i32, ptr %7, align 4
  %.not72 = icmp eq i32 %39, 0
  br i1 %.not72, label %51, label %40

40:                                               ; preds = %38
  %41 = call i32 @tvb_reported_length(ptr noundef %0)
  %42 = load i32, ptr %7, align 4
  %43 = sub i32 %41, %42
  %44 = call zeroext i1 @tvb_bytes_exist(ptr noundef %0, i32 noundef %43, i32 noundef %42)
  br i1 %44, label %45, label %51

45:                                               ; preds = %40
  %46 = load i32, ptr @hf_ieee802154_mic, align 4
  %47 = call i32 @tvb_reported_length(ptr noundef %0)
  %48 = load i32, ptr %7, align 4
  %49 = sub i32 %47, %48
  %50 = call ptr @proto_tree_add_item(ptr noundef %3, i32 noundef %46, ptr noundef %0, i32 noundef %49, i32 noundef %48, i32 noundef 0)
  br label %51

51:                                               ; preds = %40, %45, %38
  %52 = load i32, ptr %8, align 4
  switch i32 %52, label %proto_item_set_generated.exit [
    i32 0, label %53
    i32 7, label %69
    i32 2, label %.critedge.sink.split
    i32 3, label %65
    i32 4, label %66
    i32 5, label %67
    i32 6, label %68
  ]

53:                                               ; preds = %51
  %54 = load i32, ptr @hf_ieee802154_key_number, align 4
  %55 = getelementptr inbounds nuw i8, ptr %9, i64 8
  %56 = load i32, ptr %55, align 8
  %57 = call ptr @proto_tree_add_uint(ptr noundef %3, i32 noundef %54, ptr noundef %0, i32 noundef 0, i32 noundef 0, i32 noundef %56)
  %.not.i = icmp eq ptr %57, null
  br i1 %.not.i, label %proto_item_set_generated.exit, label %58

58:                                               ; preds = %53
  %59 = getelementptr inbounds nuw i8, ptr %57, i64 40
  %60 = load ptr, ptr %59, align 8
  %.not5.i = icmp eq ptr %60, null
  br i1 %.not5.i, label %proto_item_set_generated.exit, label %61

61:                                               ; preds = %58
  %62 = getelementptr inbounds nuw i8, ptr %60, i64 28
  %63 = load i32, ptr %62, align 4
  %64 = or i32 %63, 2
  store i32 %64, ptr %62, align 4
  br label %proto_item_set_generated.exit

65:                                               ; preds = %51
  br label %.critedge.sink.split

66:                                               ; preds = %51
  br label %.critedge.sink.split

67:                                               ; preds = %51
  br label %.critedge.sink.split

68:                                               ; preds = %51
  br label %.critedge.sink.split

69:                                               ; preds = %51
  %70 = call ptr (ptr, ptr, ptr, ptr, ...) @expert_add_info_format(ptr noundef %2, ptr noundef %10, ptr noundef nonnull @ei_ieee802154_decrypt_error, ptr noundef nonnull @.str.30)
  %71 = load i32, ptr %12, align 8
  %72 = and i32 %71, 4
  %.not73 = icmp eq i32 %72, 0
  br i1 %.not73, label %proto_item_set_generated.exit, label %.critedge

proto_item_set_generated.exit:                    ; preds = %61, %58, %53, %51, %69
  call void @llvm.lifetime.end.p0(i64 48, ptr nonnull %9) #19
  br label %79

73:                                               ; preds = %5
  %74 = tail call i32 @tvb_reported_length(ptr noundef %0)
  %75 = sub i32 %74, %1
  %76 = tail call ptr @tvb_new_subset_length(ptr noundef %0, i32 noundef %1, i32 noundef %75)
  br label %79

.critedge.sink.split:                             ; preds = %51, %68, %67, %66, %65
  %.str.25.sink = phi ptr [ @.str.26, %65 ], [ @.str.27, %66 ], [ @.str.28, %67 ], [ @.str.29, %68 ], [ @.str.25, %51 ]
  %77 = call ptr (ptr, ptr, ptr, ptr, ...) @expert_add_info_format(ptr noundef %2, ptr noundef %10, ptr noundef nonnull @ei_ieee802154_decrypt_error, ptr noundef nonnull %.str.25.sink)
  br label %.critedge

.critedge:                                        ; preds = %.critedge.sink.split, %69
  %78 = call i32 @call_data_dissector(ptr noundef %.171, ptr noundef %2, ptr noundef %11)
  call void @llvm.lifetime.end.p0(i64 48, ptr nonnull %9) #19
  br label %79

79:                                               ; preds = %73, %proto_item_set_generated.exit, %.critedge
  %.1 = phi ptr [ null, %.critedge ], [ %.171, %proto_item_set_generated.exit ], [ %76, %73 ]
  call void @llvm.lifetime.end.p0(i64 4, ptr nonnull %8) #19
  call void @llvm.lifetime.end.p0(i64 4, ptr nonnull %7) #19
  call void @llvm.lifetime.end.p0(i64 16, ptr nonnull %6) #19
  ret ptr %.1
}